target datalayout = "e-m:e-p270:32:32-p271:32:32-p272:64:64-i64:64-i128:128-f80:128-n8:16:32:64-S128"
target triple = "x86_64-pc-linux-gnu"

%struct.stbtt__buf = type { ptr, i32, i32 }
%struct.stbtt_fontinfo = type { ptr, ptr, i32, i32, i32, i32, i32, i32, i32, i32, i32, i32, i32, i32, %struct.stbtt__buf, %struct.stbtt__buf, %struct.stbtt__buf, %struct.stbtt__buf, %struct.stbtt__buf, %struct.stbtt__buf }

; Function Attrs: nounwind uwtable
define signext i16 @ttSHORT(ptr noundef %0) #0 {
  %2 = alloca ptr, align 8
  store ptr %0, ptr %2, align 8, !tbaa !25
  %3 = load ptr, ptr %2, align 8, !tbaa !25
  %4 = getelementptr inbounds i8, ptr %3, i64 0
  %5 = load i8, ptr %4, align 1, !tbaa !13
  %6 = zext i8 %5 to i32
  %7 = mul nsw i32 %6, 256
  %8 = load ptr, ptr %2, align 8, !tbaa !25
  %9 = getelementptr inbounds i8, ptr %8, i64 1
  %10 = load i8, ptr %9, align 1, !tbaa !13
  %11 = zext i8 %10 to i32
  %12 = add nsw i32 %7, %11
  %13 = trunc i32 %12 to i16
  ret i16 %13
}

; Function Attrs: nounwind uwtable
define i32 @ttULONG(ptr noundef %0) #0 {
  %2 = alloca ptr, align 8
  store ptr %0, ptr %2, align 8, !tbaa !25
  %3 = load ptr, ptr %2, align 8, !tbaa !25
  %4 = getelementptr inbounds i8, ptr %3, i64 0
  %5 = load i8, ptr %4, align 1, !tbaa !13
  %6 = zext i8 %5 to i32
  %7 = shl i32 %6, 24
  %8 = load ptr, ptr %2, align 8, !tbaa !25
  %9 = getelementptr inbounds i8, ptr %8, i64 1
  %10 = load i8, ptr %9, align 1, !tbaa !13
  %11 = zext i8 %10 to i32
  %12 = shl i32 %11, 16
  %13 = add nsw i32 %7, %12
  %14 = load ptr, ptr %2, align 8, !tbaa !25
  %15 = getelementptr inbounds i8, ptr %14, i64 2
  %16 = load i8, ptr %15, align 1, !tbaa !13
  %17 = zext i8 %16 to i32
  %18 = shl i32 %17, 8
  %19 = add nsw i32 %13, %18
  %20 = load ptr, ptr %2, align 8, !tbaa !25
  %21 = getelementptr inbounds i8, ptr %20, i64 3
  %22 = load i8, ptr %21, align 1, !tbaa !13
  %23 = zext i8 %22 to i32
  %24 = add nsw i32 %19, %23
  ret i32 %24
}

; Function Attrs: nounwind uwtable
define zeroext i16 @ttUSHORT(ptr noundef %0) #0 {
  %2 = alloca ptr, align 8
  store ptr %0, ptr %2, align 8, !tbaa !25
  %3 = load ptr, ptr %2, align 8, !tbaa !25
  %4 = getelementptr inbounds i8, ptr %3, i64 0
  %5 = load i8, ptr %4, align 1, !tbaa !13
  %6 = zext i8 %5 to i32
  %7 = mul nsw i32 %6, 256
  %8 = load ptr, ptr %2, align 8, !tbaa !25
  %9 = getelementptr inbounds i8, ptr %8, i64 1
  %10 = load i8, ptr %9, align 1, !tbaa !13
  %11 = zext i8 %10 to i32
  %12 = add nsw i32 %7, %11
  %13 = trunc i32 %12 to i16
  ret i16 %13
}

; Function Attrs: nounwind uwtable
define i32 @stbtt__GetGlyphKernInfoAdvance(ptr noundef %0, i32 noundef %1, i32 noundef %2) #0 {
  %4 = alloca i32, align 4
  %5 = alloca ptr, align 8
  %6 = alloca i32, align 4
  %7 = alloca i32, align 4
  %8 = alloca ptr, align 8
  %9 = alloca i32, align 4
  %10 = alloca i32, align 4
  %11 = alloca i32, align 4
  %12 = alloca i32, align 4
  %13 = alloca i32, align 4
  %14 = alloca i32, align 4
  store ptr %0, ptr %5, align 8, !tbaa !28
  store i32 %1, ptr %6, align 4, !tbaa !14
  store i32 %2, ptr %7, align 4, !tbaa !14
  call void @llvm.lifetime.start.p0(i64 8, ptr %8) #8
  %15 = load ptr, ptr %5, align 8, !tbaa !28
  %16 = getelementptr inbounds nuw %struct.stbtt_fontinfo, ptr %15, i32 0, i32 1
  %17 = load ptr, ptr %16, align 8, !tbaa !32
  %18 = load ptr, ptr %5, align 8, !tbaa !28
  %19 = getelementptr inbounds nuw %struct.stbtt_fontinfo, ptr %18, i32 0, i32 9
  %20 = load i32, ptr %19, align 4, !tbaa !39
  %21 = sext i32 %20 to i64
  %22 = getelementptr inbounds i8, ptr %17, i64 %21
  store ptr %22, ptr %8, align 8, !tbaa !25
  call void @llvm.lifetime.start.p0(i64 4, ptr %9) #8
  call void @llvm.lifetime.start.p0(i64 4, ptr %10) #8
  call void @llvm.lifetime.start.p0(i64 4, ptr %11) #8
  call void @llvm.lifetime.start.p0(i64 4, ptr %12) #8
  call void @llvm.lifetime.start.p0(i64 4, ptr %13) #8
  %23 = load ptr, ptr %5, align 8, !tbaa !28
  %24 = getelementptr inbounds nuw %struct.stbtt_fontinfo, ptr %23, i32 0, i32 9
  %25 = load i32, ptr %24, align 4, !tbaa !39
  %26 = icmp ne i32 %25, 0
  br i1 %26, label %28, label %27

27:                                               ; preds = %3
  store i32 0, ptr %4, align 4
  store i32 1, ptr %14, align 4
  br label %93

28:                                               ; preds = %3
  %29 = load ptr, ptr %8, align 8, !tbaa !25
  %30 = getelementptr inbounds i8, ptr %29, i64 2
  %31 = call zeroext i16 @ttUSHORT(ptr noundef %30)
  %32 = zext i16 %31 to i32
  %33 = icmp slt i32 %32, 1
  br i1 %33, label %34, label %35

34:                                               ; preds = %28
  store i32 0, ptr %4, align 4
  store i32 1, ptr %14, align 4
  br label %93

35:                                               ; preds = %28
  %36 = load ptr, ptr %8, align 8, !tbaa !25
  %37 = getelementptr inbounds i8, ptr %36, i64 8
  %38 = call zeroext i16 @ttUSHORT(ptr noundef %37)
  %39 = zext i16 %38 to i32
  %40 = icmp ne i32 %39, 1
  br i1 %40, label %41, label %42

41:                                               ; preds = %35
  store i32 0, ptr %4, align 4
  store i32 1, ptr %14, align 4
  br label %93

42:                                               ; preds = %35
  store i32 0, ptr %11, align 4, !tbaa !14
  %43 = load ptr, ptr %8, align 8, !tbaa !25
  %44 = getelementptr inbounds i8, ptr %43, i64 10
  %45 = call zeroext i16 @ttUSHORT(ptr noundef %44)
  %46 = zext i16 %45 to i32
  %47 = sub nsw i32 %46, 1
  store i32 %47, ptr %12, align 4, !tbaa !14
  %48 = load i32, ptr %6, align 4, !tbaa !14
  %49 = shl i32 %48, 16
  %50 = load i32, ptr %7, align 4, !tbaa !14
  %51 = or i32 %49, %50
  store i32 %51, ptr %9, align 4, !tbaa !14
  br label %52

52:                                               ; preds = %91, %42
  %53 = load i32, ptr %11, align 4, !tbaa !14
  %54 = load i32, ptr %12, align 4, !tbaa !14
  %55 = icmp sle i32 %53, %54
  br i1 %55, label %56, label %92

56:                                               ; preds = %52
  %57 = load i32, ptr %11, align 4, !tbaa !14
  %58 = load i32, ptr %12, align 4, !tbaa !14
  %59 = add nsw i32 %57, %58
  %60 = ashr i32 %59, 1
  store i32 %60, ptr %13, align 4, !tbaa !14
  %61 = load ptr, ptr %8, align 8, !tbaa !25
  %62 = getelementptr inbounds i8, ptr %61, i64 18
  %63 = load i32, ptr %13, align 4, !tbaa !14
  %64 = mul nsw i32 %63, 6
  %65 = sext i32 %64 to i64
  %66 = getelementptr inbounds i8, ptr %62, i64 %65
  %67 = call i32 @ttULONG(ptr noundef %66)
  store i32 %67, ptr %10, align 4, !tbaa !14
  %68 = load i32, ptr %9, align 4, !tbaa !14
  %69 = load i32, ptr %10, align 4, !tbaa !14
  %70 = icmp ult i32 %68, %69
  br i1 %70, label %71, label %74

71:                                               ; preds = %56
  %72 = load i32, ptr %13, align 4, !tbaa !14
  %73 = sub nsw i32 %72, 1
  store i32 %73, ptr %12, align 4, !tbaa !14
  br label %91

74:                                               ; preds = %56
  %75 = load i32, ptr %9, align 4, !tbaa !14
  %76 = load i32, ptr %10, align 4, !tbaa !14
  %77 = icmp ugt i32 %75, %76
  br i1 %77, label %78, label %81

78:                                               ; preds = %74
  %79 = load i32, ptr %13, align 4, !tbaa !14
  %80 = add nsw i32 %79, 1
  store i32 %80, ptr %11, align 4, !tbaa !14
  br label %90

81:                                               ; preds = %74
  %82 = load ptr, ptr %8, align 8, !tbaa !25
  %83 = getelementptr inbounds i8, ptr %82, i64 22
  %84 = load i32, ptr %13, align 4, !tbaa !14
  %85 = mul nsw i32 %84, 6
  %86 = sext i32 %85 to i64
  %87 = getelementptr inbounds i8, ptr %83, i64 %86
  %88 = call signext i16 @ttSHORT(ptr noundef %87)
  %89 = sext i16 %88 to i32
  store i32 %89, ptr %4, align 4
  store i32 1, ptr %14, align 4
  br label %93

90:                                               ; preds = %78
  br label %91

91:                                               ; preds = %90, %71
  br label %52, !llvm.loop !94

92:                                               ; preds = %52
  store i32 0, ptr %4, align 4
  store i32 1, ptr %14, align 4
  br label %93

93:                                               ; preds = %92, %81, %41, %34, %27
  call void @llvm.lifetime.end.p0(i64 4, ptr %13) #8
  call void @llvm.lifetime.end.p0(i64 4, ptr %12) #8
  call void @llvm.lifetime.end.p0(i64 4, ptr %11) #8
  call void @llvm.lifetime.end.p0(i64 4, ptr %10) #8
  call void @llvm.lifetime.end.p0(i64 4, ptr %9) #8
  call void @llvm.lifetime.end.p0(i64 8, ptr %8) #8
  %94 = load i32, ptr %4, align 4
  ret i32 %94
}