; Function Attrs: nofree norecurse nosync nounwind memory(read, inaccessiblemem: none) uwtable
define range(i32 -32768, 32768) i32 @stbtt__GetGlyphKernInfoAdvance(ptr noundef readonly captures(none) %0, i32 noundef %1, i32 noundef %2) local_unnamed_addr #8 {
  %4 = getelementptr inbounds nuw i8, ptr %0, i64 8
  %5 = load ptr, ptr %4, align 8, !tbaa !23
  %6 = getelementptr inbounds nuw i8, ptr %0, i64 44
  %7 = load i32, ptr %6, align 4, !tbaa !30
  %8 = sext i32 %7 to i64
  %9 = getelementptr inbounds i8, ptr %5, i64 %8
  %.not = icmp eq i32 %7, 0
  br i1 %.not, label %.loopexit, label %10

10:                                               ; preds = %3
  %11 = getelementptr inbounds nuw i8, ptr %9, i64 2
  %12 = load i8, ptr %11, align 1, !tbaa !12
  %13 = zext i8 %12 to i16
  %14 = shl nuw i16 %13, 8
  %15 = getelementptr inbounds nuw i8, ptr %9, i64 3
  %16 = load i8, ptr %15, align 1, !tbaa !12
  %17 = zext i8 %16 to i16
  %18 = or disjoint i16 %14, %17
  %19 = icmp eq i16 %18, 0
  br i1 %19, label %.loopexit, label %20

20:                                               ; preds = %10
  %21 = getelementptr inbounds nuw i8, ptr %9, i64 8
  %22 = load i8, ptr %21, align 1, !tbaa !12
  %23 = zext i8 %22 to i16
  %24 = shl nuw i16 %23, 8
  %25 = getelementptr inbounds nuw i8, ptr %9, i64 9
  %26 = load i8, ptr %25, align 1, !tbaa !12
  %27 = zext i8 %26 to i16
  %28 = or disjoint i16 %24, %27
  %.not27 = icmp eq i16 %28, 1
  br i1 %.not27, label %29, label %.loopexit

29:                                               ; preds = %20
  %30 = getelementptr inbounds nuw i8, ptr %9, i64 10
  %31 = load i8, ptr %30, align 1, !tbaa !12
  %32 = zext i8 %31 to i32
  %33 = shl nuw nsw i32 %32, 8
  %34 = getelementptr inbounds nuw i8, ptr %9, i64 11
  %35 = load i8, ptr %34, align 1, !tbaa !12
  %36 = zext i8 %35 to i32
  %37 = or disjoint i32 %33, %36
  %38 = shl i32 %1, 16
  %39 = or i32 %38, %2
  %.not2829 = icmp eq i32 %37, 0
  br i1 %.not2829, label %.loopexit, label %.lr.ph

.lr.ph:                                           ; preds = %29
  %40 = add nsw i32 %37, -1
  %41 = getelementptr inbounds nuw i8, ptr %9, i64 18
  br label %42

42:                                               ; preds = %.lr.ph, %83
  %.02231 = phi i32 [ %40, %.lr.ph ], [ %.1, %83 ]
  %.02330 = phi i32 [ 0, %.lr.ph ], [ %.124, %83 ]
  %43 = add nsw i32 %.02231, %.02330
  %44 = ashr i32 %43, 1
  %45 = mul nsw i32 %44, 6
  %46 = sext i32 %45 to i64
  %47 = getelementptr inbounds i8, ptr %41, i64 %46
  %48 = load i8, ptr %47, align 1, !tbaa !12
  %49 = zext i8 %48 to i32
  %50 = shl nuw i32 %49, 24
  %51 = getelementptr inbounds nuw i8, ptr %47, i64 1
  %52 = load i8, ptr %51, align 1, !tbaa !12
  %53 = zext i8 %52 to i32
  %54 = shl nuw nsw i32 %53, 16
  %55 = or disjoint i32 %54, %50
  %56 = getelementptr inbounds nuw i8, ptr %47, i64 2
  %57 = load i8, ptr %56, align 1, !tbaa !12
  %58 = zext i8 %57 to i32
  %59 = shl nuw nsw i32 %58, 8
  %60 = or disjoint i32 %55, %59
  %61 = getelementptr inbounds nuw i8, ptr %47, i64 3
  %62 = load i8, ptr %61, align 1, !tbaa !12
  %63 = zext i8 %62 to i32
  %64 = or disjoint i32 %60, %63
  %65 = icmp ult i32 %39, %64
  br i1 %65, label %66, label %68

66:                                               ; preds = %42
  %67 = add nsw i32 %44, -1
  br label %83

68:                                               ; preds = %42
  %69 = icmp ugt i32 %39, %64
  br i1 %69, label %70, label %72

70:                                               ; preds = %68
  %71 = add nsw i32 %44, 1
  br label %83

72:                                               ; preds = %68
  %73 = getelementptr inbounds nuw i8, ptr %9, i64 22
  %74 = getelementptr inbounds i8, ptr %73, i64 %46
  %75 = load i8, ptr %74, align 1, !tbaa !12
  %76 = zext i8 %75 to i16
  %77 = shl nuw i16 %76, 8
  %78 = getelementptr inbounds nuw i8, ptr %74, i64 1
  %79 = load i8, ptr %78, align 1, !tbaa !12
  %80 = zext i8 %79 to i16
  %81 = or disjoint i16 %77, %80
  %82 = sext i16 %81 to i32
  br label %.loopexit

83:                                               ; preds = %70, %66
  %.124 = phi i32 [ %.02330, %66 ], [ %71, %70 ]
  %.1 = phi i32 [ %67, %66 ], [ %.02231, %70 ]
  %.not28 = icmp sgt i32 %.124, %.1
  br i1 %.not28, label %.loopexit, label %42, !llvm.loop !84

.loopexit:                                        ; preds = %83, %29, %20, %10, %3, %72
  %.0 = phi i32 [ %82, %72 ], [ 0, %3 ], [ 0, %10 ], [ 0, %20 ], [ 0, %29 ], [ 0, %83 ]
  ret i32 %.0
}